(dp0
S'damascus_RussiaToday'
p1
(dp2
S'objects'
p3
(lp4
(cnumpy.core.multiarray
scalar
p5
(cnumpy
dtype
p6
(S'f4'
p7
I0
I1
tp8
Rp9
(I3
S'<'
p10
NNNI-1
I-1
I0
tp11
bS'@\\\x8b>'
p12
tp13
Rp14
g5
(g6
(S'S25'
p15
I0
I1
tp16
Rp17
(I3
S'|'
p18
NNNI25
I1
I0
tp19
bS'n03733281 maze, labyrinth'
p20
tp21
Rp22
tp23
a(g5
(g9
S'g\x0eC>'
p24
tp25
Rp26
g5
(g6
(S'S20'
p27
I0
I1
tp28
Rp29
(I3
S'|'
p30
NNNI20
I1
I0
tp31
bS'n04326547 stone wall'
p32
tp33
Rp34
tp35
a(g5
(g9
S'\xc0\xdd\xb7='
p36
tp37
Rp38
g5
(g6
(S'S43'
p39
I0
I1
tp40
Rp41
(I3
S'|'
p42
NNNI43
I1
I0
tp43
bS'n02130308 cheetah, chetah, Acinonyx jubatus'
p44
tp45
Rp46
tp47
a(g5
(g9
S'X\x0e\x17='
p48
tp49
Rp50
g5
(g6
(S'S67'
p51
I0
I1
tp52
Rp53
(I3
S'|'
p54
NNNI67
I1
I0
tp55
bS'n04604644 worm fence, snake fence, snake-rail fence, Virginia fence'
p56
tp57
Rp58
tp59
a(g5
(g9
S'J*\xe6<'
p60
tp61
Rp62
g5
(g6
(S'S31'
p63
I0
I1
tp64
Rp65
(I3
S'|'
p66
NNNI31
I1
I0
tp67
bS'n09246464 cliff, drop, drop-off'
p68
tp69
Rp70
tp71
asS'faces'
p72
(tssS'cat'
p73
(dp74
g3
(lp75
(g5
(g9
S'\xa5\xf7\x9f>'
p76
tp77
Rp78
g5
(g6
(S'S26'
p79
I0
I1
tp80
Rp81
(I3
S'|'
p82
NNNI26
I1
I0
tp83
bS'n02123045 tabby, tabby cat'
p84
tp85
Rp86
tp87
a(g5
(g9
S'\xd2\xaes>'
p88
tp89
Rp90
g5
(g6
(S'S19'
p91
I0
I1
tp92
Rp93
(I3
S'|'
p94
NNNI19
I1
I0
tp95
bS'n02123159 tiger cat'
p96
tp97
Rp98
tp99
a(g5
(g9
S'\xd7\xb0\xfd='
p100
tp101
Rp102
g5
(g6
(S'S22'
p103
I0
I1
tp104
Rp105
(I3
S'|'
p106
NNNI22
I1
I0
tp107
bS'n02124075 Egyptian cat'
p108
tp109
Rp110
tp111
a(g5
(g9
S'\xc5Y\xce='
p112
tp113
Rp114
g5
(g6
(S'S32'
p115
I0
I1
tp116
Rp117
(I3
S'|'
p118
NNNI32
I1
I0
tp119
bS'n02119022 red fox, Vulpes vulpes'
p120
tp121
Rp122
tp123
a(g5
(g9
S'\x14R\x91='
p124
tp125
Rp126
g5
(g6
(S'S25'
p127
I0
I1
tp128
Rp129
(I3
S'|'
p130
NNNI25
I1
I0
tp131
bS'n02127052 lynx, catamount'
p132
tp133
Rp134
tp135
asg72
(tssS'Flag_of_Libya_1977_2011'
p136
(dp137
g3
(lp138
(g5
(g9
S'\x94\xd9\xad='
p139
tp140
Rp141
g5
(g6
(S'S44'
p142
I0
I1
tp143
Rp144
(I3
S'|'
p145
NNNI44
I1
I0
tp146
bS'n01930112 nematode, nematode worm, roundworm'
p147
tp148
Rp149
tp150
a(g5
(g9
S'\xd6l\x85='
p151
tp152
Rp153
g5
(g6
(S'S14'
p154
I0
I1
tp155
Rp156
(I3
S'|'
p157
NNNI14
I1
I0
tp158
bS'n04592741 wing'
p159
tp160
Rp161
tp162
a(g5
(g9
S'\x08\x8d\r='
p163
tp164
Rp165
g5
(g6
(S'S23'
p166
I0
I1
tp167
Rp168
(I3
S'|'
p169
NNNI23
I1
I0
tp170
bS'n04266014 space shuttle'
p171
tp172
Rp173
tp174
a(g5
(g9
S'y\xae\xf3<'
p175
tp176
Rp177
g5
(g6
(S'S16'
p178
I0
I1
tp179
Rp180
(I3
S'|'
p181
NNNI16
I1
I0
tp182
bS'n04525038 velvet'
p183
tp184
Rp185
tp186
a(g5
(g9
S'\xab>\xed<'
p187
tp188
Rp189
g5
(g6
(S'S25'
p190
I0
I1
tp191
Rp192
(I3
S'|'
p193
NNNI25
I1
I0
tp194
bS'n04286575 spotlight, spot'
p195
tp196
Rp197
tp198
asg72
(tssS'Notting_Hill_Carnival_rubbish_Mirror'
p199
(dp200
g3
(lp201
(g5
(g9
S'v\xea\x11>'
p202
tp203
Rp204
g5
(g6
(S'S17'
p205
I0
I1
tp206
Rp207
(I3
S'|'
p208
NNNI17
I1
I0
tp209
bS'n03733131 maypole'
p210
tp211
Rp212
tp213
a(g5
(g9
S'd9\x93='
p214
tp215
Rp216
g5
(g6
(S'S42'
p217
I0
I1
tp218
Rp219
(I3
S'|'
p220
NNNI42
I1
I0
tp221
bS'n04200800 shoe shop, shoe-shop, shoe store'
p222
tp223
Rp224
tp225
a(g5
(g9
S'\x90\xcc\x8f='
p226
tp227
Rp228
g5
(g6
(S'S16'
p229
I0
I1
tp230
Rp231
(I3
S'|'
p232
NNNI16
I1
I0
tp233
bS'n09229709 bubble'
p234
tp235
Rp236
tp237
a(g5
(g9
S'\xad\x19\x8b='
p238
tp239
Rp240
g5
(g6
(S'S17'
p241
I0
I1
tp242
Rp243
(I3
S'|'
p244
NNNI17
I1
I0
tp245
bS'n03447447 gondola'
p246
tp247
Rp248
tp249
a(g5
(g9
S'\n\x1aB='
p250
tp251
Rp252
g5
(g6
(S'S35'
p253
I0
I1
tp254
Rp255
(I3
S'|'
p256
NNNI35
I1
I0
tp257
bS'n02927161 butcher shop, meat market'
p258
tp259
Rp260
tp261
asg72
(tssS'cat_dog_men_Webmd'
p262
(dp263
g3
(lp264
(g5
(g9
S':\x0b\x90>'
p265
tp266
Rp267
g5
(g6
(S'S16'
p268
I0
I1
tp269
Rp270
(I3
S'|'
p271
NNNI16
I1
I0
tp272
bS'n02088364 beagle'
p273
tp274
Rp275
tp276
a(g5
(g9
S'\x9f\xeeB>'
p277
tp278
Rp279
g5
(g6
(S'S27'
p280
I0
I1
tp281
Rp282
(I3
S'|'
p283
NNNI27
I1
I0
tp284
bS'n02091032 Italian greyhound'
p285
tp286
Rp287
tp288
a(g5
(g9
S'\x07\xcbe='
p289
tp290
Rp291
g5
(g6
(S'S39'
p292
I0
I1
tp293
Rp294
(I3
S'|'
p295
NNNI39
I1
I0
tp296
bS'n02089867 Walker hound, Walker foxhound'
p297
tp298
Rp299
tp300
a(g5
(g9
S'\xff\xdc\x1e='
p301
tp302
Rp303
g5
(g6
(S'S17'
p304
I0
I1
tp305
Rp306
(I3
S'|'
p307
NNNI17
I1
I0
tp308
bS'n02091134 whippet'
p309
tp310
Rp311
tp312
a(g5
(g9
S'7\t\x17='
p313
tp314
Rp315
g5
(g6
(S'S40'
p316
I0
I1
tp317
Rp318
(I3
S'|'
p319
NNNI40
I1
I0
tp320
bS'n02113023 Pembroke, Pembroke Welsh corgi'
p321
tp322
Rp323
tp324
asg72
cnumpy.core.multiarray
_reconstruct
p325
(cnumpy
ndarray
p326
(I0
tp327
S'b'
p328
tp329
Rp330
(I1
(I2
I4
tp331
g6
(S'i4'
p332
I0
I1
tp333
Rp334
(I3
S'<'
p335
NNNI-1
I-1
I0
tp336
bI00
S'\x0e\x00\x00\x00\x0b\x00\x00\x00\x1c\x00\x00\x00\x1c\x00\x00\x00U\x00\x00\x00\t\x00\x00\x00!\x00\x00\x00!\x00\x00\x00'
p337
tp338
bss.